; Function Attrs: nounwind uwtable
define internal i32 @_sort_step_by_cluster_name(ptr noundef readonly captures(none) %0, ptr noundef readonly captures(none) %1) #0 {
  %.val = load ptr, ptr %0, align 8
  %3 = load ptr, ptr %1, align 8
  %4 = getelementptr inbounds nuw i8, ptr %.val, i64 8
  %5 = load ptr, ptr %4, align 8
  %6 = getelementptr inbounds nuw i8, ptr %3, i64 8
  %7 = load ptr, ptr %6, align 8
  %8 = tail call i32 @xstrcmp(ptr noundef %5, ptr noundef %7) #11
  %.b3 = load i1, ptr @reverse_order, align 1
  %9 = sub nsw i32 0, %8
  %spec.select = select i1 %.b3, i32 %9, i32 %8
  ret i32 %spec.select
}